target datalayout = "e-m:e-p270:32:32-p271:32:32-p272:64:64-i64:64-i128:128-f80:128-n8:16:32:64-S128"
target triple = "x86_64-pc-linux-gnu"

%struct.Aig_Obj_t_ = type { %union.anon, ptr, ptr, i64, i32, i32, %union.anon.0 }
%union.anon = type { ptr }
%union.anon.0 = type { ptr }
%struct.Vec_Ptr_t_ = type { i32, i32, ptr }
%struct.Vec_Vec_t_ = type { i32, i32, ptr }

@.str = private unnamed_addr constant [3 x i8] c"%d\00", align 1
@.str.1 = private unnamed_addr constant [5 x i8] c"%s%s\00", align 1
@.str.2 = private unnamed_addr constant [2 x i8] c"!\00", align 1
@.str.3 = private unnamed_addr constant [1 x i8] zeroinitializer, align 1
@.str.4 = private unnamed_addr constant [3 x i8] c"%s\00", align 1
@.str.5 = private unnamed_addr constant [2 x i8] c"(\00", align 1
@.str.6 = private unnamed_addr constant [5 x i8] c" %s \00", align 1
@.str.7 = private unnamed_addr constant [2 x i8] c"+\00", align 1
@.str.8 = private unnamed_addr constant [2 x i8] c"*\00", align 1
@.str.9 = private unnamed_addr constant [2 x i8] c")\00", align 1

; Function Attrs: inlinehint nounwind uwtable
define internal void @Vec_PtrClear(ptr noundef %0) #4 {
  %2 = alloca ptr, align 8
  store ptr %0, ptr %2, align 8, !tbaa !32
  %3 = load ptr, ptr %2, align 8, !tbaa !32
  %4 = getelementptr inbounds nuw %struct.Vec_Ptr_t_, ptr %3, i32 0, i32 1
  store i32 0, ptr %4, align 4, !tbaa !33
  ret void
}

; Function Attrs: inlinehint nounwind uwtable
define internal ptr @Vec_PtrAlloc(i32 noundef %0) #4 {
  %2 = alloca i32, align 4
  %3 = alloca ptr, align 8
  store i32 %0, ptr %2, align 4, !tbaa !22
  call void @llvm.lifetime.start.p0(i64 8, ptr %3) #10
  %4 = call noalias ptr @malloc(i64 noundef 16) #13
  store ptr %4, ptr %3, align 8, !tbaa !32
  %5 = load i32, ptr %2, align 4, !tbaa !22
  %6 = icmp sgt i32 %5, 0
  br i1 %6, label %7, label %11

7:                                                ; preds = %1
  %8 = load i32, ptr %2, align 4, !tbaa !22
  %9 = icmp slt i32 %8, 8
  br i1 %9, label %10, label %11

10:                                               ; preds = %7
  store i32 8, ptr %2, align 4, !tbaa !22
  br label %11

11:                                               ; preds = %10, %7, %1
  %12 = load ptr, ptr %3, align 8, !tbaa !32
  %13 = getelementptr inbounds nuw %struct.Vec_Ptr_t_, ptr %12, i32 0, i32 1
  store i32 0, ptr %13, align 4, !tbaa !33
  %14 = load i32, ptr %2, align 4, !tbaa !22
  %15 = load ptr, ptr %3, align 8, !tbaa !32
  %16 = getelementptr inbounds nuw %struct.Vec_Ptr_t_, ptr %15, i32 0, i32 0
  store i32 %14, ptr %16, align 8, !tbaa !107
  %17 = load ptr, ptr %3, align 8, !tbaa !32
  %18 = getelementptr inbounds nuw %struct.Vec_Ptr_t_, ptr %17, i32 0, i32 0
  %19 = load i32, ptr %18, align 8, !tbaa !107
  %20 = icmp ne i32 %19, 0
  br i1 %20, label %21, label %28

21:                                               ; preds = %11
  %22 = load ptr, ptr %3, align 8, !tbaa !32
  %23 = getelementptr inbounds nuw %struct.Vec_Ptr_t_, ptr %22, i32 0, i32 0
  %24 = load i32, ptr %23, align 8, !tbaa !107
  %25 = sext i32 %24 to i64
  %26 = mul i64 8, %25
  %27 = call noalias ptr @malloc(i64 noundef %26) #13
  br label %29

28:                                               ; preds = %11
  br label %29

29:                                               ; preds = %28, %21
  %30 = phi ptr [ %27, %21 ], [ null, %28 ]
  %31 = load ptr, ptr %3, align 8, !tbaa !32
  %32 = getelementptr inbounds nuw %struct.Vec_Ptr_t_, ptr %31, i32 0, i32 2
  store ptr %30, ptr %32, align 8, !tbaa !35
  %33 = load ptr, ptr %3, align 8, !tbaa !32
  call void @llvm.lifetime.end.p0(i64 8, ptr %3) #10
  ret ptr %33
}

; Function Attrs: inlinehint nounwind uwtable
define internal void @Vec_PtrGrow(ptr noundef %0, i32 noundef %1) #4 {
  %3 = alloca ptr, align 8
  %4 = alloca i32, align 4
  store ptr %0, ptr %3, align 8, !tbaa !32
  store i32 %1, ptr %4, align 4, !tbaa !22
  %5 = load ptr, ptr %3, align 8, !tbaa !32
  %6 = getelementptr inbounds nuw %struct.Vec_Ptr_t_, ptr %5, i32 0, i32 0
  %7 = load i32, ptr %6, align 8, !tbaa !107
  %8 = load i32, ptr %4, align 4, !tbaa !22
  %9 = icmp sge i32 %7, %8
  br i1 %9, label %10, label %11

10:                                               ; preds = %2
  br label %36

11:                                               ; preds = %2
  %12 = load ptr, ptr %3, align 8, !tbaa !32
  %13 = getelementptr inbounds nuw %struct.Vec_Ptr_t_, ptr %12, i32 0, i32 2
  %14 = load ptr, ptr %13, align 8, !tbaa !35
  %15 = icmp ne ptr %14, null
  br i1 %15, label %16, label %24

16:                                               ; preds = %11
  %17 = load ptr, ptr %3, align 8, !tbaa !32
  %18 = getelementptr inbounds nuw %struct.Vec_Ptr_t_, ptr %17, i32 0, i32 2
  %19 = load ptr, ptr %18, align 8, !tbaa !35
  %20 = load i32, ptr %4, align 4, !tbaa !22
  %21 = sext i32 %20 to i64
  %22 = mul i64 8, %21
  %23 = call ptr @realloc(ptr noundef %19, i64 noundef %22) #12
  br label %29

24:                                               ; preds = %11
  %25 = load i32, ptr %4, align 4, !tbaa !22
  %26 = sext i32 %25 to i64
  %27 = mul i64 8, %26
  %28 = call noalias ptr @malloc(i64 noundef %27) #13
  br label %29

29:                                               ; preds = %24, %16
  %30 = phi ptr [ %23, %16 ], [ %28, %24 ]
  %31 = load ptr, ptr %3, align 8, !tbaa !32
  %32 = getelementptr inbounds nuw %struct.Vec_Ptr_t_, ptr %31, i32 0, i32 2
  store ptr %30, ptr %32, align 8, !tbaa !35
  %33 = load i32, ptr %4, align 4, !tbaa !22
  %34 = load ptr, ptr %3, align 8, !tbaa !32
  %35 = getelementptr inbounds nuw %struct.Vec_Ptr_t_, ptr %34, i32 0, i32 0
  store i32 %33, ptr %35, align 8, !tbaa !107
  br label %36

36:                                               ; preds = %29, %10
  ret void
}

; Function Attrs: inlinehint nounwind uwtable
define internal ptr @Aig_NotCond(ptr noundef %0, i32 noundef %1) #4 {
  %3 = alloca ptr, align 8
  %4 = alloca i32, align 4
  store ptr %0, ptr %3, align 8, !tbaa !24
  store i32 %1, ptr %4, align 4, !tbaa !22
  %5 = load ptr, ptr %3, align 8, !tbaa !24
  %6 = ptrtoint ptr %5 to i64
  %7 = load i32, ptr %4, align 4, !tbaa !22
  %8 = sext i32 %7 to i64
  %9 = xor i64 %6, %8
  %10 = inttoptr i64 %9 to ptr
  ret ptr %10
}

; Function Attrs: inlinehint nounwind uwtable
define internal ptr @Vec_PtrEntry(ptr noundef %0, i32 noundef %1) #4 {
  %3 = alloca ptr, align 8
  %4 = alloca i32, align 4
  store ptr %0, ptr %3, align 8, !tbaa !32
  store i32 %1, ptr %4, align 4, !tbaa !22
  %5 = load ptr, ptr %3, align 8, !tbaa !32
  %6 = getelementptr inbounds nuw %struct.Vec_Ptr_t_, ptr %5, i32 0, i32 2
  %7 = load ptr, ptr %6, align 8, !tbaa !35
  %8 = load i32, ptr %4, align 4, !tbaa !22
  %9 = sext i32 %8 to i64
  %10 = getelementptr inbounds ptr, ptr %7, i64 %9
  %11 = load ptr, ptr %10, align 8, !tbaa !36
  ret ptr %11
}

; Function Attrs: inlinehint nounwind uwtable
define internal i32 @Vec_PtrSize(ptr noundef %0) #4 {
  %2 = alloca ptr, align 8
  store ptr %0, ptr %2, align 8, !tbaa !32
  %3 = load ptr, ptr %2, align 8, !tbaa !32
  %4 = getelementptr inbounds nuw %struct.Vec_Ptr_t_, ptr %3, i32 0, i32 1
  %5 = load i32, ptr %4, align 4, !tbaa !33
  ret i32 %5
}

; Function Attrs: nounwind uwtable
define void @Aig_ObjCollectMulti(ptr noundef %0, ptr noundef %1) #0 {
  %3 = alloca ptr, align 8
  %4 = alloca ptr, align 8
  store ptr %0, ptr %3, align 8, !tbaa !24
  store ptr %1, ptr %4, align 8, !tbaa !32
  %5 = load ptr, ptr %4, align 8, !tbaa !32
  call void @Vec_PtrClear(ptr noundef %5)
  %6 = load ptr, ptr %3, align 8, !tbaa !24
  %7 = load ptr, ptr %3, align 8, !tbaa !24
  %8 = load ptr, ptr %4, align 8, !tbaa !32
  call void @Aig_ObjCollectMulti_rec(ptr noundef %6, ptr noundef %7, ptr noundef %8)
  ret void
}

; Function Attrs: inlinehint nounwind uwtable
define internal ptr @Vec_VecEntry(ptr noundef %0, i32 noundef %1) #4 {
  %3 = alloca ptr, align 8
  %4 = alloca i32, align 4
  store ptr %0, ptr %3, align 8, !tbaa !50
  store i32 %1, ptr %4, align 4, !tbaa !22
  %5 = load ptr, ptr %3, align 8, !tbaa !50
  %6 = getelementptr inbounds nuw %struct.Vec_Vec_t_, ptr %5, i32 0, i32 2
  %7 = load ptr, ptr %6, align 8, !tbaa !54
  %8 = load i32, ptr %4, align 4, !tbaa !22
  %9 = sext i32 %8 to i64
  %10 = getelementptr inbounds ptr, ptr %7, i64 %9
  %11 = load ptr, ptr %10, align 8, !tbaa !36
  ret ptr %11
}

; Function Attrs: inlinehint nounwind uwtable
define internal void @Vec_VecExpand(ptr noundef %0, i32 noundef %1) #4 {
  %3 = alloca ptr, align 8
  %4 = alloca i32, align 4
  %5 = alloca i32, align 4
  %6 = alloca i32, align 4
  store ptr %0, ptr %3, align 8, !tbaa !50
  store i32 %1, ptr %4, align 4, !tbaa !22
  call void @llvm.lifetime.start.p0(i64 4, ptr %5) #10
  %7 = load ptr, ptr %3, align 8, !tbaa !50
  %8 = getelementptr inbounds nuw %struct.Vec_Vec_t_, ptr %7, i32 0, i32 1
  %9 = load i32, ptr %8, align 4, !tbaa !52
  %10 = load i32, ptr %4, align 4, !tbaa !22
  %11 = add nsw i32 %10, 1
  %12 = icmp sge i32 %9, %11
  br i1 %12, label %13, label %14

13:                                               ; preds = %2
  store i32 1, ptr %6, align 4
  br label %41

14:                                               ; preds = %2
  %15 = load ptr, ptr %3, align 8, !tbaa !50
  %16 = load i32, ptr %4, align 4, !tbaa !22
  %17 = add nsw i32 %16, 1
  call void @Vec_PtrGrow(ptr noundef %15, i32 noundef %17)
  %18 = load ptr, ptr %3, align 8, !tbaa !50
  %19 = getelementptr inbounds nuw %struct.Vec_Vec_t_, ptr %18, i32 0, i32 1
  %20 = load i32, ptr %19, align 4, !tbaa !52
  store i32 %20, ptr %5, align 4, !tbaa !22
  br label %21

21:                                               ; preds = %33, %14
  %22 = load i32, ptr %5, align 4, !tbaa !22
  %23 = load i32, ptr %4, align 4, !tbaa !22
  %24 = icmp sle i32 %22, %23
  br i1 %24, label %25, label %36

25:                                               ; preds = %21
  %26 = call ptr @Vec_PtrAlloc(i32 noundef 0)
  %27 = load ptr, ptr %3, align 8, !tbaa !50
  %28 = getelementptr inbounds nuw %struct.Vec_Vec_t_, ptr %27, i32 0, i32 2
  %29 = load ptr, ptr %28, align 8, !tbaa !54
  %30 = load i32, ptr %5, align 4, !tbaa !22
  %31 = sext i32 %30 to i64
  %32 = getelementptr inbounds ptr, ptr %29, i64 %31
  store ptr %26, ptr %32, align 8, !tbaa !36
  br label %33

33:                                               ; preds = %25
  %34 = load i32, ptr %5, align 4, !tbaa !22
  %35 = add nsw i32 %34, 1
  store i32 %35, ptr %5, align 4, !tbaa !22
  br label %21, !llvm.loop !55

36:                                               ; preds = %21
  %37 = load i32, ptr %4, align 4, !tbaa !22
  %38 = add nsw i32 %37, 1
  %39 = load ptr, ptr %3, align 8, !tbaa !50
  %40 = getelementptr inbounds nuw %struct.Vec_Vec_t_, ptr %39, i32 0, i32 1
  store i32 %38, ptr %40, align 4, !tbaa !52
  store i32 0, ptr %6, align 4
  br label %41

41:                                               ; preds = %36, %13
  call void @llvm.lifetime.end.p0(i64 4, ptr %5) #10
  %42 = load i32, ptr %6, align 4
  switch i32 %42, label %44 [
    i32 0, label %43
    i32 1, label %43
  ]

43:                                               ; preds = %41, %41
  ret void

44:                                               ; preds = %41
  unreachable
}

; Function Attrs: inlinehint nounwind uwtable
define internal i32 @Aig_ObjIsCi(ptr noundef %0) #4 {
  %2 = alloca ptr, align 8
  store ptr %0, ptr %2, align 8, !tbaa !24
  %3 = load ptr, ptr %2, align 8, !tbaa !24
  %4 = getelementptr inbounds nuw %struct.Aig_Obj_t_, ptr %3, i32 0, i32 3
  %5 = load i64, ptr %4, align 8
  %6 = and i64 %5, 7
  %7 = trunc i64 %6 to i32
  %8 = icmp eq i32 %7, 2
  %9 = zext i1 %8 to i32
  ret i32 %9
}

; Function Attrs: inlinehint nounwind uwtable
define internal i32 @Aig_ObjIsConst1(ptr noundef %0) #4 {
  %2 = alloca ptr, align 8
  store ptr %0, ptr %2, align 8, !tbaa !24
  %3 = load ptr, ptr %2, align 8, !tbaa !24
  %4 = getelementptr inbounds nuw %struct.Aig_Obj_t_, ptr %3, i32 0, i32 3
  %5 = load i64, ptr %4, align 8
  %6 = and i64 %5, 7
  %7 = trunc i64 %6 to i32
  %8 = icmp eq i32 %7, 1
  %9 = zext i1 %8 to i32
  ret i32 %9
}

; Function Attrs: inlinehint nounwind uwtable
define internal ptr @Aig_Regular(ptr noundef %0) #4 {
  %2 = alloca ptr, align 8
  store ptr %0, ptr %2, align 8, !tbaa !24
  %3 = load ptr, ptr %2, align 8, !tbaa !24
  %4 = ptrtoint ptr %3 to i64
  %5 = and i64 %4, -2
  %6 = inttoptr i64 %5 to ptr
  ret ptr %6
}

; Function Attrs: inlinehint nounwind uwtable
define internal i32 @Aig_IsComplement(ptr noundef %0) #4 {
  %2 = alloca ptr, align 8
  store ptr %0, ptr %2, align 8, !tbaa !24
  %3 = load ptr, ptr %2, align 8, !tbaa !24
  %4 = ptrtoint ptr %3 to i64
  %5 = and i64 %4, 1
  %6 = trunc i64 %5 to i32
  ret i32 %6
}

; Function Attrs: nounwind uwtable
define void @Aig_ObjPrintEqn(ptr noundef %0, ptr noundef %1, ptr noundef %2, i32 noundef %3) #0 {
  %5 = alloca ptr, align 8
  %6 = alloca ptr, align 8
  %7 = alloca ptr, align 8
  %8 = alloca i32, align 4
  %9 = alloca ptr, align 8
  %10 = alloca ptr, align 8
  %11 = alloca i32, align 4
  %12 = alloca i32, align 4
  %13 = alloca i32, align 4
  store ptr %0, ptr %5, align 8, !tbaa !48
  store ptr %1, ptr %6, align 8, !tbaa !24
  store ptr %2, ptr %7, align 8, !tbaa !50
  store i32 %3, ptr %8, align 4, !tbaa !22
  call void @llvm.lifetime.start.p0(i64 8, ptr %9) #10
  call void @llvm.lifetime.start.p0(i64 8, ptr %10) #10
  call void @llvm.lifetime.start.p0(i64 4, ptr %11) #10
  call void @llvm.lifetime.start.p0(i64 4, ptr %12) #10
  %14 = load ptr, ptr %6, align 8, !tbaa !24
  %15 = call i32 @Aig_IsComplement(ptr noundef %14)
  store i32 %15, ptr %11, align 4, !tbaa !22
  %16 = load ptr, ptr %6, align 8, !tbaa !24
  %17 = call ptr @Aig_Regular(ptr noundef %16)
  store ptr %17, ptr %6, align 8, !tbaa !24
  %18 = load ptr, ptr %6, align 8, !tbaa !24
  %19 = call i32 @Aig_ObjIsConst1(ptr noundef %18)
  %20 = icmp ne i32 %19, 0
  br i1 %20, label %21, label %28

21:                                               ; preds = %4
  %22 = load ptr, ptr %5, align 8, !tbaa !48
  %23 = load i32, ptr %11, align 4, !tbaa !22
  %24 = icmp ne i32 %23, 0
  %25 = xor i1 %24, true
  %26 = zext i1 %25 to i32
  %27 = call i32 (ptr, ptr, ...) @fprintf(ptr noundef %22, ptr noundef @.str, i32 noundef %26) #10
  store i32 1, ptr %13, align 4
  br label %94

28:                                               ; preds = %4
  %29 = load ptr, ptr %6, align 8, !tbaa !24
  %30 = call i32 @Aig_ObjIsCi(ptr noundef %29)
  %31 = icmp ne i32 %30, 0
  br i1 %31, label %32, label %41

32:                                               ; preds = %28
  %33 = load ptr, ptr %5, align 8, !tbaa !48
  %34 = load i32, ptr %11, align 4, !tbaa !22
  %35 = icmp ne i32 %34, 0
  %36 = select i1 %35, ptr @.str.2, ptr @.str.3
  %37 = load ptr, ptr %6, align 8, !tbaa !24
  %38 = getelementptr inbounds nuw %struct.Aig_Obj_t_, ptr %37, i32 0, i32 6
  %39 = load ptr, ptr %38, align 8, !tbaa !25
  %40 = call i32 (ptr, ptr, ...) @fprintf(ptr noundef %33, ptr noundef @.str.1, ptr noundef %36, ptr noundef %39) #10
  store i32 1, ptr %13, align 4
  br label %94

41:                                               ; preds = %28
  %42 = load ptr, ptr %7, align 8, !tbaa !50
  %43 = load i32, ptr %8, align 4, !tbaa !22
  call void @Vec_VecExpand(ptr noundef %42, i32 noundef %43)
  %44 = load ptr, ptr %7, align 8, !tbaa !50
  %45 = load i32, ptr %8, align 4, !tbaa !22
  %46 = call ptr @Vec_VecEntry(ptr noundef %44, i32 noundef %45)
  store ptr %46, ptr %9, align 8, !tbaa !32
  %47 = load ptr, ptr %6, align 8, !tbaa !24
  %48 = load ptr, ptr %9, align 8, !tbaa !32
  call void @Aig_ObjCollectMulti(ptr noundef %47, ptr noundef %48)
  %49 = load ptr, ptr %5, align 8, !tbaa !48
  %50 = load i32, ptr %8, align 4, !tbaa !22
  %51 = icmp eq i32 %50, 0
  %52 = select i1 %51, ptr @.str.3, ptr @.str.5
  %53 = call i32 (ptr, ptr, ...) @fprintf(ptr noundef %49, ptr noundef @.str.4, ptr noundef %52) #10
  store i32 0, ptr %12, align 4, !tbaa !22
  br label %54

54:                                               ; preds = %85, %41
  %55 = load i32, ptr %12, align 4, !tbaa !22
  %56 = load ptr, ptr %9, align 8, !tbaa !32
  %57 = call i32 @Vec_PtrSize(ptr noundef %56)
  %58 = icmp slt i32 %55, %57
  br i1 %58, label %59, label %63

59:                                               ; preds = %54
  %60 = load ptr, ptr %9, align 8, !tbaa !32
  %61 = load i32, ptr %12, align 4, !tbaa !22
  %62 = call ptr @Vec_PtrEntry(ptr noundef %60, i32 noundef %61)
  store ptr %62, ptr %10, align 8, !tbaa !24
  br label %63

63:                                               ; preds = %59, %54
  %64 = phi i1 [ false, %54 ], [ true, %59 ]
  br i1 %64, label %65, label %88

65:                                               ; preds = %63
  %66 = load ptr, ptr %5, align 8, !tbaa !48
  %67 = load ptr, ptr %10, align 8, !tbaa !24
  %68 = load i32, ptr %11, align 4, !tbaa !22
  %69 = call ptr @Aig_NotCond(ptr noundef %67, i32 noundef %68)
  %70 = load ptr, ptr %7, align 8, !tbaa !50
  %71 = load i32, ptr %8, align 4, !tbaa !22
  %72 = add nsw i32 %71, 1
  call void @Aig_ObjPrintEqn(ptr noundef %66, ptr noundef %69, ptr noundef %70, i32 noundef %72)
  %73 = load i32, ptr %12, align 4, !tbaa !22
  %74 = load ptr, ptr %9, align 8, !tbaa !32
  %75 = call i32 @Vec_PtrSize(ptr noundef %74)
  %76 = sub nsw i32 %75, 1
  %77 = icmp slt i32 %73, %76
  br i1 %77, label %78, label %84

78:                                               ; preds = %65
  %79 = load ptr, ptr %5, align 8, !tbaa !48
  %80 = load i32, ptr %11, align 4, !tbaa !22
  %81 = icmp ne i32 %80, 0
  %82 = select i1 %81, ptr @.str.7, ptr @.str.8
  %83 = call i32 (ptr, ptr, ...) @fprintf(ptr noundef %79, ptr noundef @.str.6, ptr noundef %82) #10
  br label %84

84:                                               ; preds = %78, %65
  br label %85

85:                                               ; preds = %84
  %86 = load i32, ptr %12, align 4, !tbaa !22
  %87 = add nsw i32 %86, 1
  store i32 %87, ptr %12, align 4, !tbaa !22
  br label %54, !llvm.loop !51

88:                                               ; preds = %63
  %89 = load ptr, ptr %5, align 8, !tbaa !48
  %90 = load i32, ptr %8, align 4, !tbaa !22
  %91 = icmp eq i32 %90, 0
  %92 = select i1 %91, ptr @.str.3, ptr @.str.9
  %93 = call i32 (ptr, ptr, ...) @fprintf(ptr noundef %89, ptr noundef @.str.4, ptr noundef %92) #10
  store i32 1, ptr %13, align 4
  br label %94

94:                                               ; preds = %88, %32, %21
  call void @llvm.lifetime.end.p0(i64 4, ptr %12) #10
  call void @llvm.lifetime.end.p0(i64 4, ptr %11) #10
  call void @llvm.lifetime.end.p0(i64 8, ptr %10) #10
  call void @llvm.lifetime.end.p0(i64 8, ptr %9) #10
  ret void
}