; Function Attrs: nounwind uwtable
define void @Aig_ObjPrintEqn(ptr noundef captures(none) %0, ptr noundef %1, ptr noundef captures(none) %2, i32 noundef %3) local_unnamed_addr #1 {
  %5 = ptrtoint ptr %1 to i64
  %6 = trunc i64 %5 to i32
  %7 = and i32 %6, 1
  %8 = and i64 %5, -2
  %9 = inttoptr i64 %8 to ptr
  %10 = getelementptr i8, ptr %9, i64 24
  %.val40 = load i64, ptr %10, align 8
  %11 = and i64 %.val40, 7
  switch i64 %11, label %20 [
    i64 1, label %12
    i64 2, label %15
  ]

12:                                               ; preds = %4
  %13 = xor i32 %7, 1
  %14 = tail call i32 (ptr, ptr, ...) @fprintf(ptr noundef %0, ptr noundef nonnull @.str, i32 noundef %13) #25
  br label %69

15:                                               ; preds = %4
  %.not35 = icmp eq i32 %7, 0
  %16 = select i1 %.not35, ptr @.str.3, ptr @.str.2
  %17 = getelementptr inbounds nuw i8, ptr %9, i64 40
  %18 = load ptr, ptr %17, align 8, !tbaa !26
  %19 = tail call i32 (ptr, ptr, ...) @fprintf(ptr noundef %0, ptr noundef nonnull @.str.1, ptr noundef nonnull %16, ptr noundef %18) #25
  br label %69

20:                                               ; preds = %4
  %21 = getelementptr inbounds nuw i8, ptr %2, i64 4
  %22 = load i32, ptr %21, align 4, !tbaa !45
  %23 = add i32 %3, 1
  %.not.not.i = icmp sgt i32 %22, %3
  br i1 %.not.not.i, label %Vec_VecExpand.exit, label %24

24:                                               ; preds = %20
  %25 = load i32, ptr %2, align 8, !tbaa !42
  %.not.i.not.i = icmp sgt i32 %25, %3
  br i1 %.not.i.not.i, label %Vec_PtrGrow.exit.i, label %26

26:                                               ; preds = %24
  %27 = getelementptr inbounds nuw i8, ptr %2, i64 8
  %28 = load ptr, ptr %27, align 8, !tbaa !24
  %.not9.i.i = icmp eq ptr %28, null
  %29 = sext i32 %23 to i64
  %30 = shl nsw i64 %29, 3
  br i1 %.not9.i.i, label %33, label %31

31:                                               ; preds = %26
  %32 = tail call ptr @realloc(ptr noundef nonnull %28, i64 noundef %30) #27
  %.pre.pre.i = load i32, ptr %21, align 4, !tbaa !45
  br label %35

33:                                               ; preds = %26
  %34 = tail call noalias ptr @malloc(i64 noundef %30) #28
  br label %35

35:                                               ; preds = %33, %31
  %.pre.i = phi i32 [ %.pre.pre.i, %31 ], [ %22, %33 ]
  %36 = phi ptr [ %32, %31 ], [ %34, %33 ]
  store ptr %36, ptr %27, align 8, !tbaa !24
  store i32 %23, ptr %2, align 8, !tbaa !42
  br label %Vec_PtrGrow.exit.i

Vec_PtrGrow.exit.i:                               ; preds = %35, %24
  %37 = phi i32 [ %22, %24 ], [ %.pre.i, %35 ]
  %.not12.i = icmp sgt i32 %37, %3
  br i1 %.not12.i, label %._crit_edge.i, label %.lr.ph.i

.lr.ph.i:                                         ; preds = %Vec_PtrGrow.exit.i
  %38 = getelementptr inbounds nuw i8, ptr %2, i64 8
  %39 = sext i32 %37 to i64
  br label %40

40:                                               ; preds = %40, %.lr.ph.i
  %indvars.iv.i = phi i64 [ %39, %.lr.ph.i ], [ %indvars.iv.next.i, %40 ]
  %calloc.i = tail call dereferenceable_or_null(16) ptr @calloc(i64 1, i64 16)
  %41 = load ptr, ptr %38, align 8, !tbaa !47
  %42 = getelementptr inbounds ptr, ptr %41, i64 %indvars.iv.i
  store ptr %calloc.i, ptr %42, align 8, !tbaa !25
  %indvars.iv.next.i = add nsw i64 %indvars.iv.i, 1
  %lftr.wideiv.i = trunc i64 %indvars.iv.next.i to i32
  %exitcond.not.i = icmp eq i32 %23, %lftr.wideiv.i
  br i1 %exitcond.not.i, label %._crit_edge.i, label %40, !llvm.loop !48

._crit_edge.i:                                    ; preds = %40, %Vec_PtrGrow.exit.i
  store i32 %23, ptr %21, align 4, !tbaa !45
  br label %Vec_VecExpand.exit

Vec_VecExpand.exit:                               ; preds = %20, %._crit_edge.i
  %43 = getelementptr i8, ptr %2, i64 8
  %.val41 = load ptr, ptr %43, align 8, !tbaa !47
  %44 = sext i32 %3 to i64
  %45 = getelementptr inbounds ptr, ptr %.val41, i64 %44
  %46 = load ptr, ptr %45, align 8, !tbaa !25
  %47 = getelementptr inbounds nuw i8, ptr %46, i64 4
  store i32 0, ptr %47, align 4, !tbaa !22
  tail call void @Aig_ObjCollectMulti_rec(ptr noundef %9, ptr noundef %9, ptr noundef %46)
  %48 = icmp eq i32 %3, 0
  %49 = select i1 %48, ptr @.str.3, ptr @.str.5
  %fputs = tail call i32 @fputs(ptr nonnull %49, ptr %0)
  %.val3743 = load i32, ptr %47, align 4, !tbaa !22
  %50 = icmp sgt i32 %.val3743, 0
  br i1 %50, label %.lr.ph, label %.critedge

.lr.ph:                                           ; preds = %Vec_VecExpand.exit
  %51 = getelementptr i8, ptr %46, i64 8
  %52 = and i64 %5, 1
  %.not34 = icmp eq i32 %7, 0
  %53 = select i1 %.not34, ptr @.str.8, ptr @.str.7
  br label %54

54:                                               ; preds = %.lr.ph, %65
  %indvars.iv = phi i64 [ 0, %.lr.ph ], [ %indvars.iv.next, %65 ]
  %.val38 = load ptr, ptr %51, align 8, !tbaa !24
  %55 = getelementptr inbounds nuw ptr, ptr %.val38, i64 %indvars.iv
  %56 = load ptr, ptr %55, align 8, !tbaa !25
  %57 = ptrtoint ptr %56 to i64
  %58 = xor i64 %52, %57
  %59 = inttoptr i64 %58 to ptr
  tail call void @Aig_ObjPrintEqn(ptr noundef %0, ptr noundef %59, ptr noundef %2, i32 noundef %23)
  %.val = load i32, ptr %47, align 4, !tbaa !22
  %60 = add nsw i32 %.val, -1
  %61 = sext i32 %60 to i64
  %62 = icmp slt i64 %indvars.iv, %61
  br i1 %62, label %63, label %65

63:                                               ; preds = %54
  %64 = tail call i32 (ptr, ptr, ...) @fprintf(ptr noundef %0, ptr noundef nonnull @.str.6, ptr noundef nonnull %53) #25
  %.val37.pre = load i32, ptr %47, align 4, !tbaa !22
  br label %65

65:                                               ; preds = %54, %63
  %.val37 = phi i32 [ %.val, %54 ], [ %.val37.pre, %63 ]
  %indvars.iv.next = add nuw nsw i64 %indvars.iv, 1
  %66 = sext i32 %.val37 to i64
  %67 = icmp slt i64 %indvars.iv.next, %66
  br i1 %67, label %54, label %.critedge, !llvm.loop !49

.critedge:                                        ; preds = %65, %Vec_VecExpand.exit
  %68 = select i1 %48, ptr @.str.3, ptr @.str.9
  %fputs33 = tail call i32 @fputs(ptr nonnull %68, ptr %0)
  br label %69

69:                                               ; preds = %.critedge, %15, %12
  ret void
}